target datalayout = "e-m:e-p270:32:32-p271:32:32-p272:64:64-i64:64-i128:128-f80:128-n8:16:32:64-S128"
target triple = "x86_64-pc-linux-gnu"

%struct.lemon = type { ptr, ptr, ptr, i32, i32, i32, i32, i32, i32, i32, i32, i32, i32, i32, i32, ptr, i32, ptr, ptr, ptr, ptr, ptr, ptr, ptr, ptr, ptr, ptr, ptr, ptr, ptr, ptr, ptr, ptr, ptr, ptr, ptr, ptr, i32, i32, i32, i32, i32, i32, i32, i32, ptr }
%struct.config = type { ptr, i32, ptr, ptr, ptr, ptr, i32, ptr, ptr }
%struct.state = type { ptr, ptr, i32, ptr, i32, i32, i32, i32, i32, ptr, i32 }
%struct.plink = type { ptr, ptr }

@stderr = external global ptr, align 8
@plink_freelist = internal global ptr null, align 8
@.str.80 = private unnamed_addr constant [66 x i8] c"Unable to allocate memory for a new follow-set propagation link.\0A\00", align 1

; Function Attrs: null_pointer_is_valid sspstrong uwtable
define hidden ptr @Plink_new() #0 {
  %1 = alloca ptr, align 8
  %2 = alloca i32, align 4
  %3 = alloca i32, align 4
  call void @llvm.lifetime.start.p0(i64 8, ptr %1) #18
  %4 = load ptr, ptr @plink_freelist, align 8
  %5 = icmp eq ptr %4, null
  br i1 %5, label %6, label %42

6:                                                ; preds = %0
  call void @llvm.lifetime.start.p0(i64 4, ptr %2) #18
  call void @llvm.lifetime.start.p0(i64 4, ptr %3) #18
  store i32 100, ptr %3, align 4
  %7 = load i32, ptr %3, align 4
  %8 = sext i32 %7 to i64
  %9 = call noalias ptr @calloc(i64 noundef %8, i64 noundef 16) #19
  store ptr %9, ptr @plink_freelist, align 8
  %10 = load ptr, ptr @plink_freelist, align 8
  %11 = icmp eq ptr %10, null
  br i1 %11, label %12, label %15

12:                                               ; preds = %6
  %13 = load ptr, ptr @stderr, align 8
  %14 = call i32 (ptr, i32, ptr, ...) @__fprintf_chk(ptr noundef %13, i32 noundef 2, ptr noundef @.str.80)
  call void @exit(i32 noundef 1) #20
  unreachable

15:                                               ; preds = %6
  store i32 0, ptr %2, align 4
  br label %16

16:                                               ; preds = %32, %15
  %17 = load i32, ptr %2, align 4
  %18 = load i32, ptr %3, align 4
  %19 = sub i32 %18, 1
  %20 = icmp slt i32 %17, %19
  br i1 %20, label %21, label %35

21:                                               ; preds = %16
  %22 = load ptr, ptr @plink_freelist, align 8
  %23 = load i32, ptr %2, align 4
  %24 = add i32 %23, 1
  %25 = sext i32 %24 to i64
  %26 = getelementptr %struct.plink, ptr %22, i64 %25
  %27 = load ptr, ptr @plink_freelist, align 8
  %28 = load i32, ptr %2, align 4
  %29 = sext i32 %28 to i64
  %30 = getelementptr %struct.plink, ptr %27, i64 %29
  %31 = getelementptr inbounds nuw %struct.plink, ptr %30, i32 0, i32 1
  store ptr %26, ptr %31, align 8
  br label %32

32:                                               ; preds = %21
  %33 = load i32, ptr %2, align 4
  %34 = add i32 %33, 1
  store i32 %34, ptr %2, align 4
  br label %16, !llvm.loop !197

35:                                               ; preds = %16
  %36 = load ptr, ptr @plink_freelist, align 8
  %37 = load i32, ptr %3, align 4
  %38 = sub i32 %37, 1
  %39 = sext i32 %38 to i64
  %40 = getelementptr %struct.plink, ptr %36, i64 %39
  %41 = getelementptr inbounds nuw %struct.plink, ptr %40, i32 0, i32 1
  store ptr null, ptr %41, align 8
  call void @llvm.lifetime.end.p0(i64 4, ptr %3) #18
  call void @llvm.lifetime.end.p0(i64 4, ptr %2) #18
  br label %42

42:                                               ; preds = %35, %0
  %43 = load ptr, ptr @plink_freelist, align 8
  store ptr %43, ptr %1, align 8
  %44 = load ptr, ptr @plink_freelist, align 8
  %45 = getelementptr inbounds nuw %struct.plink, ptr %44, i32 0, i32 1
  %46 = load ptr, ptr %45, align 8
  store ptr %46, ptr @plink_freelist, align 8
  %47 = load ptr, ptr %1, align 8
  call void @llvm.lifetime.end.p0(i64 8, ptr %1) #18
  ret ptr %47
}

; Function Attrs: null_pointer_is_valid sspstrong uwtable
define hidden void @Plink_add(ptr noundef %0, ptr noundef %1) #0 {
  %3 = alloca ptr, align 8
  %4 = alloca ptr, align 8
  %5 = alloca ptr, align 8
  store ptr %0, ptr %3, align 8
  store ptr %1, ptr %4, align 8
  call void @llvm.lifetime.start.p0(i64 8, ptr %5) #18
  %6 = call ptr @Plink_new()
  store ptr %6, ptr %5, align 8
  %7 = load ptr, ptr %3, align 8
  %8 = load ptr, ptr %7, align 8
  %9 = load ptr, ptr %5, align 8
  %10 = getelementptr inbounds nuw %struct.plink, ptr %9, i32 0, i32 1
  store ptr %8, ptr %10, align 8
  %11 = load ptr, ptr %5, align 8
  %12 = load ptr, ptr %3, align 8
  store ptr %11, ptr %12, align 8
  %13 = load ptr, ptr %4, align 8
  %14 = load ptr, ptr %5, align 8
  %15 = getelementptr inbounds nuw %struct.plink, ptr %14, i32 0, i32 0
  store ptr %13, ptr %15, align 8
  call void @llvm.lifetime.end.p0(i64 8, ptr %5) #18
  ret void
}

; Function Attrs: null_pointer_is_valid sspstrong uwtable
define hidden void @FindLinks(ptr noundef %0) #0 {
  %2 = alloca ptr, align 8
  %3 = alloca i32, align 4
  %4 = alloca ptr, align 8
  %5 = alloca ptr, align 8
  %6 = alloca ptr, align 8
  %7 = alloca ptr, align 8
  store ptr %0, ptr %2, align 8
  call void @llvm.lifetime.start.p0(i64 4, ptr %3) #18
  call void @llvm.lifetime.start.p0(i64 8, ptr %4) #18
  call void @llvm.lifetime.start.p0(i64 8, ptr %5) #18
  call void @llvm.lifetime.start.p0(i64 8, ptr %6) #18
  call void @llvm.lifetime.start.p0(i64 8, ptr %7) #18
  store i32 0, ptr %3, align 4
  br label %8

8:                                                ; preds = %43, %1
  %9 = load i32, ptr %3, align 4
  %10 = load ptr, ptr %2, align 8
  %11 = getelementptr inbounds nuw %struct.lemon, ptr %10, i32 0, i32 3
  %12 = load i32, ptr %11, align 8
  %13 = icmp slt i32 %9, %12
  br i1 %13, label %14, label %46

14:                                               ; preds = %8
  %15 = load ptr, ptr %2, align 8
  %16 = getelementptr inbounds nuw %struct.lemon, ptr %15, i32 0, i32 0
  %17 = load ptr, ptr %16, align 8
  %18 = load i32, ptr %3, align 4
  %19 = sext i32 %18 to i64
  %20 = getelementptr ptr, ptr %17, i64 %19
  %21 = load ptr, ptr %20, align 8
  store ptr %21, ptr %6, align 8
  %22 = load ptr, ptr %6, align 8
  %23 = icmp ne ptr %22, null
  br i1 %23, label %24, label %28

24:                                               ; preds = %14
  %25 = load ptr, ptr %6, align 8
  %26 = getelementptr inbounds nuw %struct.state, ptr %25, i32 0, i32 1
  %27 = load ptr, ptr %26, align 8
  br label %29

28:                                               ; preds = %14
  br label %29

29:                                               ; preds = %28, %24
  %30 = phi ptr [ %27, %24 ], [ null, %28 ]
  store ptr %30, ptr %4, align 8
  br label %31

31:                                               ; preds = %38, %29
  %32 = load ptr, ptr %4, align 8
  %33 = icmp ne ptr %32, null
  br i1 %33, label %34, label %42

34:                                               ; preds = %31
  %35 = load ptr, ptr %6, align 8
  %36 = load ptr, ptr %4, align 8
  %37 = getelementptr inbounds nuw %struct.config, ptr %36, i32 0, i32 5
  store ptr %35, ptr %37, align 8
  br label %38

38:                                               ; preds = %34
  %39 = load ptr, ptr %4, align 8
  %40 = getelementptr inbounds nuw %struct.config, ptr %39, i32 0, i32 7
  %41 = load ptr, ptr %40, align 8
  store ptr %41, ptr %4, align 8
  br label %31, !llvm.loop !52

42:                                               ; preds = %31
  br label %43

43:                                               ; preds = %42
  %44 = load i32, ptr %3, align 4
  %45 = add i32 %44, 1
  store i32 %45, ptr %3, align 4
  br label %8, !llvm.loop !53

46:                                               ; preds = %8
  store i32 0, ptr %3, align 4
  br label %47

47:                                               ; preds = %97, %46
  %48 = load i32, ptr %3, align 4
  %49 = load ptr, ptr %2, align 8
  %50 = getelementptr inbounds nuw %struct.lemon, ptr %49, i32 0, i32 3
  %51 = load i32, ptr %50, align 8
  %52 = icmp slt i32 %48, %51
  br i1 %52, label %53, label %100

53:                                               ; preds = %47
  %54 = load ptr, ptr %2, align 8
  %55 = getelementptr inbounds nuw %struct.lemon, ptr %54, i32 0, i32 0
  %56 = load ptr, ptr %55, align 8
  %57 = load i32, ptr %3, align 4
  %58 = sext i32 %57 to i64
  %59 = getelementptr ptr, ptr %56, i64 %58
  %60 = load ptr, ptr %59, align 8
  store ptr %60, ptr %6, align 8
  %61 = load ptr, ptr %6, align 8
  %62 = icmp ne ptr %61, null
  br i1 %62, label %63, label %67

63:                                               ; preds = %53
  %64 = load ptr, ptr %6, align 8
  %65 = getelementptr inbounds nuw %struct.state, ptr %64, i32 0, i32 1
  %66 = load ptr, ptr %65, align 8
  br label %68

67:                                               ; preds = %53
  br label %68

68:                                               ; preds = %67, %63
  %69 = phi ptr [ %66, %63 ], [ null, %67 ]
  store ptr %69, ptr %4, align 8
  br label %70

70:                                               ; preds = %92, %68
  %71 = load ptr, ptr %4, align 8
  %72 = icmp ne ptr %71, null
  br i1 %72, label %73, label %96

73:                                               ; preds = %70
  %74 = load ptr, ptr %4, align 8
  %75 = getelementptr inbounds nuw %struct.config, ptr %74, i32 0, i32 4
  %76 = load ptr, ptr %75, align 8
  store ptr %76, ptr %7, align 8
  br label %77

77:                                               ; preds = %87, %73
  %78 = load ptr, ptr %7, align 8
  %79 = icmp ne ptr %78, null
  br i1 %79, label %80, label %91

80:                                               ; preds = %77
  %81 = load ptr, ptr %7, align 8
  %82 = getelementptr inbounds nuw %struct.plink, ptr %81, i32 0, i32 0
  %83 = load ptr, ptr %82, align 8
  store ptr %83, ptr %5, align 8
  %84 = load ptr, ptr %5, align 8
  %85 = getelementptr inbounds nuw %struct.config, ptr %84, i32 0, i32 3
  %86 = load ptr, ptr %4, align 8
  call void @Plink_add(ptr noundef %85, ptr noundef %86)
  br label %87

87:                                               ; preds = %80
  %88 = load ptr, ptr %7, align 8
  %89 = getelementptr inbounds nuw %struct.plink, ptr %88, i32 0, i32 1
  %90 = load ptr, ptr %89, align 8
  store ptr %90, ptr %7, align 8
  br label %77, !llvm.loop !54

91:                                               ; preds = %77
  br label %92

92:                                               ; preds = %91
  %93 = load ptr, ptr %4, align 8
  %94 = getelementptr inbounds nuw %struct.config, ptr %93, i32 0, i32 7
  %95 = load ptr, ptr %94, align 8
  store ptr %95, ptr %4, align 8
  br label %70, !llvm.loop !55

96:                                               ; preds = %70
  br label %97

97:                                               ; preds = %96
  %98 = load i32, ptr %3, align 4
  %99 = add i32 %98, 1
  store i32 %99, ptr %3, align 4
  br label %47, !llvm.loop !56

100:                                              ; preds = %47
  call void @llvm.lifetime.end.p0(i64 8, ptr %7) #18
  call void @llvm.lifetime.end.p0(i64 8, ptr %6) #18
  call void @llvm.lifetime.end.p0(i64 8, ptr %5) #18
  call void @llvm.lifetime.end.p0(i64 8, ptr %4) #18
  call void @llvm.lifetime.end.p0(i64 4, ptr %3) #18
  ret void
}