; Function Attrs: null_pointer_is_valid sspstrong uwtable
define hidden void @FindLinks(ptr noundef readonly captures(none) %0) local_unnamed_addr #0 {
  %2 = getelementptr inbounds nuw i8, ptr %0, i64 24
  %3 = load i32, ptr %2, align 8
  %4 = icmp sgt i32 %3, 0
  br i1 %4, label %.lr.ph38, label %._crit_edge52

.preheader:                                       ; preds = %._crit_edge
  %5 = icmp sgt i32 %16, 0
  br i1 %5, label %.lr.ph51, label %._crit_edge52

.lr.ph38:                                         ; preds = %1, %._crit_edge
  %6 = phi i32 [ %16, %._crit_edge ], [ %3, %1 ]
  %indvars.iv = phi i64 [ %indvars.iv.next, %._crit_edge ], [ 0, %1 ]
  %7 = load ptr, ptr %0, align 8
  %8 = getelementptr ptr, ptr %7, i64 %indvars.iv
  %9 = load ptr, ptr %8, align 8
  %.not32 = icmp eq ptr %9, null
  br i1 %.not32, label %._crit_edge, label %10

10:                                               ; preds = %.lr.ph38
  %11 = getelementptr inbounds nuw i8, ptr %9, i64 8
  %12 = load ptr, ptr %11, align 8
  %.not3334 = icmp eq ptr %12, null
  br i1 %.not3334, label %._crit_edge, label %.lr.ph

.lr.ph:                                           ; preds = %10, %.lr.ph
  %.02635 = phi ptr [ %15, %.lr.ph ], [ %12, %10 ]
  %13 = getelementptr inbounds nuw i8, ptr %.02635, i64 40
  store ptr %9, ptr %13, align 8
  %14 = getelementptr inbounds nuw i8, ptr %.02635, i64 56
  %15 = load ptr, ptr %14, align 8
  %.not33 = icmp eq ptr %15, null
  br i1 %.not33, label %._crit_edge.loopexit, label %.lr.ph, !llvm.loop !65

._crit_edge.loopexit:                             ; preds = %.lr.ph
  %.pre = load i32, ptr %2, align 8
  br label %._crit_edge

._crit_edge:                                      ; preds = %.lr.ph38, %._crit_edge.loopexit, %10
  %16 = phi i32 [ %.pre, %._crit_edge.loopexit ], [ %6, %10 ], [ %6, %.lr.ph38 ]
  %indvars.iv.next = add nuw nsw i64 %indvars.iv, 1
  %17 = sext i32 %16 to i64
  %18 = icmp slt i64 %indvars.iv.next, %17
  br i1 %18, label %.lr.ph38, label %.preheader, !llvm.loop !66

.lr.ph51:                                         ; preds = %.preheader, %._crit_edge49
  %19 = phi i32 [ %48, %._crit_edge49 ], [ %16, %.preheader ]
  %indvars.iv54 = phi i64 [ %indvars.iv.next55, %._crit_edge49 ], [ 0, %.preheader ]
  %20 = load ptr, ptr %0, align 8
  %21 = getelementptr ptr, ptr %20, i64 %indvars.iv54
  %22 = load ptr, ptr %21, align 8
  %.not = icmp eq ptr %22, null
  br i1 %.not, label %._crit_edge49, label %23

23:                                               ; preds = %.lr.ph51
  %24 = getelementptr inbounds nuw i8, ptr %22, i64 8
  %25 = load ptr, ptr %24, align 8
  %.not3045 = icmp eq ptr %25, null
  br i1 %.not3045, label %._crit_edge49, label %.lr.ph48

.lr.ph48:                                         ; preds = %23, %._crit_edge44
  %.12746 = phi ptr [ %47, %._crit_edge44 ], [ %25, %23 ]
  %26 = getelementptr inbounds nuw i8, ptr %.12746, i64 32
  %.039 = load ptr, ptr %26, align 8
  %.not3140 = icmp eq ptr %.039, null
  br i1 %.not3140, label %._crit_edge44, label %.lr.ph43.preheader

.lr.ph43.preheader:                               ; preds = %.lr.ph48
  %plink_freelist.promoted = load ptr, ptr @plink_freelist, align 8
  br label %.lr.ph43

.lr.ph43:                                         ; preds = %.lr.ph43.preheader, %Plink_add.exit
  %.041 = phi ptr [ %.0, %Plink_add.exit ], [ %.039, %.lr.ph43.preheader ]
  %27 = phi ptr [ %43, %Plink_add.exit ], [ %plink_freelist.promoted, %.lr.ph43.preheader ]
  %28 = load ptr, ptr %.041, align 8
  %29 = getelementptr inbounds nuw i8, ptr %28, i64 24
  %30 = icmp eq ptr %27, null
  br i1 %30, label %31, label %Plink_add.exit

31:                                               ; preds = %.lr.ph43
  %32 = tail call noalias dereferenceable_or_null(1600) ptr @calloc(i64 noundef 100, i64 noundef 16) #40
  store ptr %32, ptr @plink_freelist, align 8
  %33 = icmp eq ptr %32, null
  br i1 %33, label %34, label %.preheader.i.i

34:                                               ; preds = %31
  %35 = load ptr, ptr @stderr, align 8
  %36 = tail call i32 (ptr, i32, ptr, ...) @__fprintf_chk(ptr noundef %35, i32 noundef 2, ptr noundef nonnull @.str.80)
  tail call void @exit(i32 noundef 1) #41
  unreachable

.preheader.i.i:                                   ; preds = %31, %.preheader.i.i
  %indvars.iv.i.i = phi i64 [ %indvars.iv.next.i.i, %.preheader.i.i ], [ 0, %31 ]
  %indvars.iv.next.i.i = add nuw nsw i64 %indvars.iv.i.i, 1
  %37 = getelementptr %struct.plink, ptr %32, i64 %indvars.iv.next.i.i
  %38 = getelementptr %struct.plink, ptr %32, i64 %indvars.iv.i.i, i32 1
  store ptr %37, ptr %38, align 8
  %exitcond.not.i.i = icmp eq i64 %indvars.iv.next.i.i, 99
  br i1 %exitcond.not.i.i, label %39, label %.preheader.i.i, !llvm.loop !54

39:                                               ; preds = %.preheader.i.i
  %40 = getelementptr i8, ptr %32, i64 1592
  store ptr null, ptr %40, align 8
  br label %Plink_add.exit

Plink_add.exit:                                   ; preds = %.lr.ph43, %39
  %41 = phi ptr [ %32, %39 ], [ %27, %.lr.ph43 ]
  %42 = getelementptr inbounds nuw i8, ptr %41, i64 8
  %43 = load ptr, ptr %42, align 8
  store ptr %43, ptr @plink_freelist, align 8
  %44 = load ptr, ptr %29, align 8
  store ptr %44, ptr %42, align 8
  store ptr %41, ptr %29, align 8
  store ptr %.12746, ptr %41, align 8
  %45 = getelementptr inbounds nuw i8, ptr %.041, i64 8
  %.0 = load ptr, ptr %45, align 8
  %.not31 = icmp eq ptr %.0, null
  br i1 %.not31, label %._crit_edge44, label %.lr.ph43, !llvm.loop !67

._crit_edge44:                                    ; preds = %Plink_add.exit, %.lr.ph48
  %46 = getelementptr inbounds nuw i8, ptr %.12746, i64 56
  %47 = load ptr, ptr %46, align 8
  %.not30 = icmp eq ptr %47, null
  br i1 %.not30, label %._crit_edge49.loopexit, label %.lr.ph48, !llvm.loop !68

._crit_edge49.loopexit:                           ; preds = %._crit_edge44
  %.pre57 = load i32, ptr %2, align 8
  br label %._crit_edge49

._crit_edge49:                                    ; preds = %.lr.ph51, %._crit_edge49.loopexit, %23
  %48 = phi i32 [ %.pre57, %._crit_edge49.loopexit ], [ %19, %23 ], [ %19, %.lr.ph51 ]
  %indvars.iv.next55 = add nuw nsw i64 %indvars.iv54, 1
  %49 = sext i32 %48 to i64
  %50 = icmp slt i64 %indvars.iv.next55, %49
  br i1 %50, label %.lr.ph51, label %._crit_edge52, !llvm.loop !69

._crit_edge52:                                    ; preds = %._crit_edge49, %1, %.preheader
  ret void
}